target datalayout = "e-m:e-p270:32:32-p271:32:32-p272:64:64-i64:64-i128:128-f80:128-n8:16:32:64-S128"
target triple = "x86_64-pc-linux-gnu"

%"class.cvc5::internal::NodeTemplate.0" = type { ptr }
%"class.cvc5::internal::NodeTemplate" = type { ptr }
%"class.cvc5::internal::expr::NodeValue" = type { i64, i64, ptr, [0 x ptr] }
%"class.cvc5::internal::NodeBuilder" = type <{ %"class.cvc5::internal::expr::NodeValue", [10 x ptr], ptr, ptr, i32, [4 x i8] }>

; Function Attrs: mustprogress nounwind uwtable
define linkonce_odr hidden noundef ptr @_ZNK4cvc58internal4expr9NodeValue14getNodeManagerEv(ptr noundef nonnull align 8 dereferenceable(24) %0) #8 comdat align 2 {
  %2 = alloca ptr, align 8
  store ptr %0, ptr %2, align 8, !tbaa !29
  %3 = load ptr, ptr %2, align 8
  %4 = getelementptr inbounds nuw %"class.cvc5::internal::expr::NodeValue", ptr %3, i32 0, i32 2
  %5 = load ptr, ptr %4, align 8, !tbaa !275
  ret ptr %5
}

; Function Attrs: mustprogress uwtable
define linkonce_odr hidden noundef ptr @_ZNK4cvc58internal12NodeTemplateILb0EE14getNodeManagerEv(ptr noundef nonnull align 8 dereferenceable(8) %0) #4 comdat align 2 {
  %2 = alloca ptr, align 8
  store ptr %0, ptr %2, align 8, !tbaa !3
  %3 = load ptr, ptr %2, align 8
  call void @_ZNK4cvc58internal12NodeTemplateILb0EE21assertTNodeNotExpiredEv(ptr noundef nonnull align 8 dereferenceable(8) %3)
  %4 = getelementptr inbounds nuw %"class.cvc5::internal::NodeTemplate", ptr %3, i32 0, i32 0
  %5 = load ptr, ptr %4, align 8, !tbaa !10
  %6 = call noundef ptr @_ZNK4cvc58internal4expr9NodeValue14getNodeManagerEv(ptr noundef nonnull align 8 dereferenceable(24) %5)
  ret ptr %6
}

; Function Attrs: inlinehint mustprogress nounwind uwtable
define linkonce_odr hidden void @_ZNK4cvc58internal12NodeTemplateILb0EE21assertTNodeNotExpiredEv(ptr noundef nonnull align 8 dereferenceable(8) %0) #6 comdat align 2 {
  %2 = alloca ptr, align 8
  store ptr %0, ptr %2, align 8, !tbaa !3
  ret void
}

; Function Attrs: mustprogress nounwind uwtable
define linkonce_odr hidden void @_ZN4cvc58internal12NodeTemplateILb0EED2Ev(ptr noundef nonnull align 8 dereferenceable(8) %0) unnamed_addr #8 comdat align 2 {
  %2 = alloca ptr, align 8
  store ptr %0, ptr %2, align 8, !tbaa !3
  ret void
}

; Function Attrs: inlinehint mustprogress uwtable
define linkonce_odr hidden void @_ZN4cvc58internal11NodeManager6mkNodeENS0_4kind6Kind_tENS0_12NodeTemplateILb0EEES5_(ptr dead_on_unwind noalias writable sret(%"class.cvc5::internal::NodeTemplate.0") align 8 %0, i32 noundef %1, ptr noundef %2, ptr noundef %3) #7 comdat align 2 personality ptr @__gxx_personality_v0 {
  %5 = alloca ptr, align 8
  %6 = alloca i32, align 4
  %7 = alloca ptr, align 8
  %8 = alloca ptr, align 8
  %9 = alloca %"class.cvc5::internal::NodeBuilder", align 8
  %10 = alloca %"class.cvc5::internal::NodeTemplate", align 8
  %11 = alloca ptr, align 8
  %12 = alloca i32, align 4
  %13 = alloca %"class.cvc5::internal::NodeTemplate", align 8
  store ptr %0, ptr %5, align 8
  store i32 %1, ptr %6, align 4, !tbaa !48
  store ptr %2, ptr %7, align 8, !tbaa !3
  store ptr %3, ptr %8, align 8, !tbaa !3
  call void @llvm.lifetime.start.p0(i64 128, ptr %9) #3
  %14 = call noundef ptr @_ZNK4cvc58internal12NodeTemplateILb0EE14getNodeManagerEv(ptr noundef nonnull align 8 dereferenceable(8) %2)
  %15 = load i32, ptr %6, align 4, !tbaa !48
  call void @_ZN4cvc58internal11NodeBuilderC1EPNS0_11NodeManagerENS0_4kind6Kind_tE(ptr noundef nonnull align 8 dereferenceable(124) %9, ptr noundef %14, i32 noundef %15)
  invoke void @_ZN4cvc58internal12NodeTemplateILb0EEC2ERKS2_(ptr noundef nonnull align 8 dereferenceable(8) %10, ptr noundef nonnull align 8 dereferenceable(8) %2)
          to label %16 unwind label %23

16:                                               ; preds = %4
  %17 = invoke noundef nonnull align 8 dereferenceable(124) ptr @_ZN4cvc58internal11NodeBuilderlsENS0_12NodeTemplateILb0EEE(ptr noundef nonnull align 8 dereferenceable(124) %9, ptr noundef %10)
          to label %18 unwind label %27

18:                                               ; preds = %16
  invoke void @_ZN4cvc58internal12NodeTemplateILb0EEC2ERKS2_(ptr noundef nonnull align 8 dereferenceable(8) %13, ptr noundef nonnull align 8 dereferenceable(8) %3)
          to label %19 unwind label %27

19:                                               ; preds = %18
  %20 = invoke noundef nonnull align 8 dereferenceable(124) ptr @_ZN4cvc58internal11NodeBuilderlsENS0_12NodeTemplateILb0EEE(ptr noundef nonnull align 8 dereferenceable(124) %17, ptr noundef %13)
          to label %21 unwind label %31

21:                                               ; preds = %19
  call void @_ZN4cvc58internal12NodeTemplateILb0EED2Ev(ptr noundef nonnull align 8 dereferenceable(8) %13) #3
  call void @_ZN4cvc58internal12NodeTemplateILb0EED2Ev(ptr noundef nonnull align 8 dereferenceable(8) %10) #3
  invoke void @_ZN4cvc58internal11NodeBuilder13constructNodeEv(ptr dead_on_unwind writable sret(%"class.cvc5::internal::NodeTemplate.0") align 8 %0, ptr noundef nonnull align 8 dereferenceable(124) %9)
          to label %22 unwind label %23

22:                                               ; preds = %21
  call void @_ZN4cvc58internal11NodeBuilderD1Ev(ptr noundef nonnull align 8 dereferenceable(124) %9) #3
  call void @llvm.lifetime.end.p0(i64 128, ptr %9) #3
  ret void

23:                                               ; preds = %21, %4
  %24 = landingpad { ptr, i32 }
          cleanup
  %25 = extractvalue { ptr, i32 } %24, 0
  store ptr %25, ptr %11, align 8
  %26 = extractvalue { ptr, i32 } %24, 1
  store i32 %26, ptr %12, align 4
  br label %36

27:                                               ; preds = %18, %16
  %28 = landingpad { ptr, i32 }
          cleanup
  %29 = extractvalue { ptr, i32 } %28, 0
  store ptr %29, ptr %11, align 8
  %30 = extractvalue { ptr, i32 } %28, 1
  store i32 %30, ptr %12, align 4
  br label %35

31:                                               ; preds = %19
  %32 = landingpad { ptr, i32 }
          cleanup
  %33 = extractvalue { ptr, i32 } %32, 0
  store ptr %33, ptr %11, align 8
  %34 = extractvalue { ptr, i32 } %32, 1
  store i32 %34, ptr %12, align 4
  call void @_ZN4cvc58internal12NodeTemplateILb0EED2Ev(ptr noundef nonnull align 8 dereferenceable(8) %13) #3
  br label %35

35:                                               ; preds = %31, %27
  call void @_ZN4cvc58internal12NodeTemplateILb0EED2Ev(ptr noundef nonnull align 8 dereferenceable(8) %10) #3
  br label %36

36:                                               ; preds = %35, %23
  call void @_ZN4cvc58internal11NodeBuilderD1Ev(ptr noundef nonnull align 8 dereferenceable(124) %9) #3
  call void @llvm.lifetime.end.p0(i64 128, ptr %9) #3
  br label %37

37:                                               ; preds = %36
  %38 = load ptr, ptr %11, align 8
  %39 = load i32, ptr %12, align 4
  %40 = insertvalue { ptr, i32 } poison, ptr %38, 0
  %41 = insertvalue { ptr, i32 } %40, i32 %39, 1
  resume { ptr, i32 } %41
}

; Function Attrs: mustprogress nounwind uwtable
define linkonce_odr hidden void @_ZN4cvc58internal12NodeTemplateILb0EEC2ERKS2_(ptr noundef nonnull align 8 dereferenceable(8) %0, ptr noundef nonnull align 8 dereferenceable(8) %1) unnamed_addr #8 comdat align 2 {
  %3 = alloca ptr, align 8
  %4 = alloca ptr, align 8
  store ptr %0, ptr %3, align 8, !tbaa !3
  store ptr %1, ptr %4, align 8, !tbaa !3
  %5 = load ptr, ptr %3, align 8
  %6 = load ptr, ptr %4, align 8, !tbaa !3
  %7 = getelementptr inbounds nuw %"class.cvc5::internal::NodeTemplate", ptr %6, i32 0, i32 0
  %8 = load ptr, ptr %7, align 8, !tbaa !10
  %9 = getelementptr inbounds nuw %"class.cvc5::internal::NodeTemplate", ptr %5, i32 0, i32 0
  store ptr %8, ptr %9, align 8, !tbaa !10
  ret void
}

; Function Attrs: inlinehint mustprogress nounwind uwtable
define linkonce_odr hidden noundef zeroext i1 @_ZNK4cvc58internal12NodeTemplateILb0EEltILb0EEEbRKNS1_IXT_EEE(ptr noundef nonnull align 8 dereferenceable(8) %0, ptr noundef nonnull align 8 dereferenceable(8) %1) #6 comdat align 2 {
  %3 = alloca ptr, align 8
  %4 = alloca ptr, align 8
  store ptr %0, ptr %3, align 8, !tbaa !3
  store ptr %1, ptr %4, align 8, !tbaa !3
  %5 = load ptr, ptr %3, align 8
  call void @_ZNK4cvc58internal12NodeTemplateILb0EE21assertTNodeNotExpiredEv(ptr noundef nonnull align 8 dereferenceable(8) %5)
  %6 = load ptr, ptr %4, align 8, !tbaa !3
  call void @_ZNK4cvc58internal12NodeTemplateILb0EE21assertTNodeNotExpiredEv(ptr noundef nonnull align 8 dereferenceable(8) %6)
  %7 = getelementptr inbounds nuw %"class.cvc5::internal::NodeTemplate", ptr %5, i32 0, i32 0
  %8 = load ptr, ptr %7, align 8, !tbaa !10
  %9 = load i64, ptr %8, align 8
  %10 = and i64 %9, 1099511627775
  %11 = load ptr, ptr %4, align 8, !tbaa !3
  %12 = getelementptr inbounds nuw %"class.cvc5::internal::NodeTemplate", ptr %11, i32 0, i32 0
  %13 = load ptr, ptr %12, align 8, !tbaa !10
  %14 = load i64, ptr %13, align 8
  %15 = and i64 %14, 1099511627775
  %16 = icmp ult i64 %10, %15
  ret i1 %16
}

; Function Attrs: mustprogress uwtable
define hidden void @_ZN4cvc58internal6theory2bv5utils12mkSortedNodeENS0_4kind6Kind_tENS0_12NodeTemplateILb0EEES7_(ptr dead_on_unwind noalias writable sret(%"class.cvc5::internal::NodeTemplate.0") align 8 %0, i32 noundef %1, ptr noundef %2, ptr noundef %3) #4 personality ptr @__gxx_personality_v0 {
  %5 = alloca ptr, align 8
  %6 = alloca i32, align 4
  %7 = alloca ptr, align 8
  %8 = alloca ptr, align 8
  %9 = alloca %"class.cvc5::internal::NodeTemplate", align 8
  %10 = alloca %"class.cvc5::internal::NodeTemplate", align 8
  %11 = alloca ptr, align 8
  %12 = alloca i32, align 4
  %13 = alloca %"class.cvc5::internal::NodeTemplate", align 8
  %14 = alloca %"class.cvc5::internal::NodeTemplate", align 8
  store ptr %0, ptr %5, align 8
  store i32 %1, ptr %6, align 4, !tbaa !48
  store ptr %2, ptr %7, align 8, !tbaa !3
  store ptr %3, ptr %8, align 8, !tbaa !3
  %15 = call noundef zeroext i1 @_ZNK4cvc58internal12NodeTemplateILb0EEltILb0EEEbRKNS1_IXT_EEE(ptr noundef nonnull align 8 dereferenceable(8) %2, ptr noundef nonnull align 8 dereferenceable(8) %3)
  br i1 %15, label %16, label %29

16:                                               ; preds = %4
  %17 = load i32, ptr %6, align 4, !tbaa !48
  call void @_ZN4cvc58internal12NodeTemplateILb0EEC2ERKS2_(ptr noundef nonnull align 8 dereferenceable(8) %9, ptr noundef nonnull align 8 dereferenceable(8) %2)
  invoke void @_ZN4cvc58internal12NodeTemplateILb0EEC2ERKS2_(ptr noundef nonnull align 8 dereferenceable(8) %10, ptr noundef nonnull align 8 dereferenceable(8) %3)
          to label %18 unwind label %20

18:                                               ; preds = %16
  invoke void @_ZN4cvc58internal11NodeManager6mkNodeENS0_4kind6Kind_tENS0_12NodeTemplateILb0EEES5_(ptr dead_on_unwind writable sret(%"class.cvc5::internal::NodeTemplate.0") align 8 %0, i32 noundef %17, ptr noundef %9, ptr noundef %10)
          to label %19 unwind label %24

19:                                               ; preds = %18
  call void @_ZN4cvc58internal12NodeTemplateILb0EED2Ev(ptr noundef nonnull align 8 dereferenceable(8) %10) #3
  call void @_ZN4cvc58internal12NodeTemplateILb0EED2Ev(ptr noundef nonnull align 8 dereferenceable(8) %9) #3
  br label %42

20:                                               ; preds = %16
  %21 = landingpad { ptr, i32 }
          cleanup
  %22 = extractvalue { ptr, i32 } %21, 0
  store ptr %22, ptr %11, align 8
  %23 = extractvalue { ptr, i32 } %21, 1
  store i32 %23, ptr %12, align 4
  br label %28

24:                                               ; preds = %18
  %25 = landingpad { ptr, i32 }
          cleanup
  %26 = extractvalue { ptr, i32 } %25, 0
  store ptr %26, ptr %11, align 8
  %27 = extractvalue { ptr, i32 } %25, 1
  store i32 %27, ptr %12, align 4
  call void @_ZN4cvc58internal12NodeTemplateILb0EED2Ev(ptr noundef nonnull align 8 dereferenceable(8) %10) #3
  br label %28

28:                                               ; preds = %24, %20
  call void @_ZN4cvc58internal12NodeTemplateILb0EED2Ev(ptr noundef nonnull align 8 dereferenceable(8) %9) #3
  br label %43

29:                                               ; preds = %4
  %30 = load i32, ptr %6, align 4, !tbaa !48
  call void @_ZN4cvc58internal12NodeTemplateILb0EEC2ERKS2_(ptr noundef nonnull align 8 dereferenceable(8) %13, ptr noundef nonnull align 8 dereferenceable(8) %3)
  invoke void @_ZN4cvc58internal12NodeTemplateILb0EEC2ERKS2_(ptr noundef nonnull align 8 dereferenceable(8) %14, ptr noundef nonnull align 8 dereferenceable(8) %2)
          to label %31 unwind label %33

31:                                               ; preds = %29
  invoke void @_ZN4cvc58internal11NodeManager6mkNodeENS0_4kind6Kind_tENS0_12NodeTemplateILb0EEES5_(ptr dead_on_unwind writable sret(%"class.cvc5::internal::NodeTemplate.0") align 8 %0, i32 noundef %30, ptr noundef %13, ptr noundef %14)
          to label %32 unwind label %37

32:                                               ; preds = %31
  call void @_ZN4cvc58internal12NodeTemplateILb0EED2Ev(ptr noundef nonnull align 8 dereferenceable(8) %14) #3
  call void @_ZN4cvc58internal12NodeTemplateILb0EED2Ev(ptr noundef nonnull align 8 dereferenceable(8) %13) #3
  br label %42

33:                                               ; preds = %29
  %34 = landingpad { ptr, i32 }
          cleanup
  %35 = extractvalue { ptr, i32 } %34, 0
  store ptr %35, ptr %11, align 8
  %36 = extractvalue { ptr, i32 } %34, 1
  store i32 %36, ptr %12, align 4
  br label %41

37:                                               ; preds = %31
  %38 = landingpad { ptr, i32 }
          cleanup
  %39 = extractvalue { ptr, i32 } %38, 0
  store ptr %39, ptr %11, align 8
  %40 = extractvalue { ptr, i32 } %38, 1
  store i32 %40, ptr %12, align 4
  call void @_ZN4cvc58internal12NodeTemplateILb0EED2Ev(ptr noundef nonnull align 8 dereferenceable(8) %14) #3
  br label %41

41:                                               ; preds = %37, %33
  call void @_ZN4cvc58internal12NodeTemplateILb0EED2Ev(ptr noundef nonnull align 8 dereferenceable(8) %13) #3
  br label %43

42:                                               ; preds = %32, %19
  ret void

43:                                               ; preds = %41, %28
  %44 = load ptr, ptr %11, align 8
  %45 = load i32, ptr %12, align 4
  %46 = insertvalue { ptr, i32 } poison, ptr %44, 0
  %47 = insertvalue { ptr, i32 } %46, i32 %45, 1
  resume { ptr, i32 } %47
}