; Function Attrs: mustprogress uwtable
define hidden void @_ZN4cvc58internal6theory2bv5utils12mkSortedNodeENS0_4kind6Kind_tENS0_12NodeTemplateILb0EEES7_(ptr dead_on_unwind noalias writable sret(%"class.cvc5::internal::NodeTemplate.0") align 8 %0, i32 noundef %1, ptr noundef readonly captures(none) %2, ptr noundef readonly captures(none) %3) local_unnamed_addr #3 personality ptr @__gxx_personality_v0 {
  %5 = alloca %"class.cvc5::internal::NodeBuilder", align 8
  %6 = alloca %"class.cvc5::internal::NodeTemplate", align 8
  %7 = alloca %"class.cvc5::internal::NodeTemplate", align 8
  %8 = alloca %"class.cvc5::internal::NodeBuilder", align 8
  %9 = alloca %"class.cvc5::internal::NodeTemplate", align 8
  %10 = alloca %"class.cvc5::internal::NodeTemplate", align 8
  %11 = load ptr, ptr %2, align 8, !tbaa !10
  %12 = load i64, ptr %11, align 8
  %13 = and i64 %12, 1099511627775
  %14 = load ptr, ptr %3, align 8, !tbaa !10
  %15 = load i64, ptr %14, align 8
  %16 = and i64 %15, 1099511627775
  %17 = icmp samesign ult i64 %13, %16
  br i1 %17, label %.noexc, label %.noexc6

.noexc:                                           ; preds = %4
  call void @llvm.lifetime.start.p0(i64 8, ptr nonnull %9)
  call void @llvm.lifetime.start.p0(i64 8, ptr nonnull %10)
  call void @llvm.lifetime.start.p0(i64 128, ptr nonnull %8) #22, !noalias !109
  %18 = getelementptr inbounds nuw i8, ptr %11, i64 16
  %19 = load ptr, ptr %18, align 8, !tbaa !26, !noalias !109
  call void @_ZN4cvc58internal11NodeBuilderC1EPNS0_11NodeManagerENS0_4kind6Kind_tE(ptr noundef nonnull align 8 dereferenceable(124) %8, ptr noundef %19, i32 noundef %1)
  store ptr %11, ptr %9, align 8, !tbaa !10, !noalias !109
  %20 = invoke noundef nonnull align 8 dereferenceable(124) ptr @_ZN4cvc58internal11NodeBuilderlsENS0_12NodeTemplateILb0EEE(ptr noundef nonnull align 8 dereferenceable(124) %8, ptr noundef nonnull %9)
          to label %21 unwind label %26, !noalias !109

21:                                               ; preds = %.noexc
  store ptr %14, ptr %10, align 8, !tbaa !10, !noalias !109
  %22 = invoke noundef nonnull align 8 dereferenceable(124) ptr @_ZN4cvc58internal11NodeBuilderlsENS0_12NodeTemplateILb0EEE(ptr noundef nonnull align 8 dereferenceable(124) %20, ptr noundef nonnull %10)
          to label %23 unwind label %28, !noalias !109

23:                                               ; preds = %21
  invoke void @_ZN4cvc58internal11NodeBuilder13constructNodeEv(ptr dead_on_unwind writable sret(%"class.cvc5::internal::NodeTemplate.0") align 8 %0, ptr noundef nonnull align 8 dereferenceable(124) %8)
          to label %31 unwind label %24

24:                                               ; preds = %23
  %25 = landingpad { ptr, i32 }
          cleanup
  br label %30

26:                                               ; preds = %.noexc
  %27 = landingpad { ptr, i32 }
          cleanup
  br label %30

28:                                               ; preds = %21
  %29 = landingpad { ptr, i32 }
          cleanup
  br label %30

30:                                               ; preds = %28, %26, %24
  %.pn5.i = phi { ptr, i32 } [ %25, %24 ], [ %29, %28 ], [ %27, %26 ]
  call void @_ZN4cvc58internal11NodeBuilderD1Ev(ptr noundef nonnull align 8 dereferenceable(124) %8) #22
  call void @llvm.lifetime.end.p0(i64 128, ptr nonnull %8) #22, !noalias !109
  br label %.body

31:                                               ; preds = %23
  call void @_ZN4cvc58internal11NodeBuilderD1Ev(ptr noundef nonnull align 8 dereferenceable(124) %8) #22
  call void @llvm.lifetime.end.p0(i64 128, ptr nonnull %8) #22, !noalias !109
  call void @llvm.lifetime.end.p0(i64 8, ptr nonnull %9)
  call void @llvm.lifetime.end.p0(i64 8, ptr nonnull %10)
  br label %46

.noexc6:                                          ; preds = %4
  call void @llvm.lifetime.start.p0(i64 8, ptr nonnull %6)
  call void @llvm.lifetime.start.p0(i64 8, ptr nonnull %7)
  call void @llvm.lifetime.start.p0(i64 128, ptr nonnull %5) #22, !noalias !112
  %32 = getelementptr inbounds nuw i8, ptr %14, i64 16
  %33 = load ptr, ptr %32, align 8, !tbaa !26, !noalias !112
  call void @_ZN4cvc58internal11NodeBuilderC1EPNS0_11NodeManagerENS0_4kind6Kind_tE(ptr noundef nonnull align 8 dereferenceable(124) %5, ptr noundef %33, i32 noundef %1)
  store ptr %14, ptr %6, align 8, !tbaa !10, !noalias !112
  %34 = invoke noundef nonnull align 8 dereferenceable(124) ptr @_ZN4cvc58internal11NodeBuilderlsENS0_12NodeTemplateILb0EEE(ptr noundef nonnull align 8 dereferenceable(124) %5, ptr noundef nonnull %6)
          to label %35 unwind label %40, !noalias !112

35:                                               ; preds = %.noexc6
  store ptr %11, ptr %7, align 8, !tbaa !10, !noalias !112
  %36 = invoke noundef nonnull align 8 dereferenceable(124) ptr @_ZN4cvc58internal11NodeBuilderlsENS0_12NodeTemplateILb0EEE(ptr noundef nonnull align 8 dereferenceable(124) %34, ptr noundef nonnull %7)
          to label %37 unwind label %42, !noalias !112

37:                                               ; preds = %35
  invoke void @_ZN4cvc58internal11NodeBuilder13constructNodeEv(ptr dead_on_unwind writable sret(%"class.cvc5::internal::NodeTemplate.0") align 8 %0, ptr noundef nonnull align 8 dereferenceable(124) %5)
          to label %45 unwind label %38

38:                                               ; preds = %37
  %39 = landingpad { ptr, i32 }
          cleanup
  br label %44

40:                                               ; preds = %.noexc6
  %41 = landingpad { ptr, i32 }
          cleanup
  br label %44

42:                                               ; preds = %35
  %43 = landingpad { ptr, i32 }
          cleanup
  br label %44

44:                                               ; preds = %42, %40, %38
  %.pn5.i5 = phi { ptr, i32 } [ %39, %38 ], [ %43, %42 ], [ %41, %40 ]
  call void @_ZN4cvc58internal11NodeBuilderD1Ev(ptr noundef nonnull align 8 dereferenceable(124) %5) #22
  call void @llvm.lifetime.end.p0(i64 128, ptr nonnull %5) #22, !noalias !112
  br label %.body

45:                                               ; preds = %37
  call void @_ZN4cvc58internal11NodeBuilderD1Ev(ptr noundef nonnull align 8 dereferenceable(124) %5) #22
  call void @llvm.lifetime.end.p0(i64 128, ptr nonnull %5) #22, !noalias !112
  call void @llvm.lifetime.end.p0(i64 8, ptr nonnull %6)
  call void @llvm.lifetime.end.p0(i64 8, ptr nonnull %7)
  br label %46

46:                                               ; preds = %45, %31
  ret void

.body:                                            ; preds = %44, %30
  %.pn = phi { ptr, i32 } [ %.pn5.i, %30 ], [ %.pn5.i5, %44 ]
  resume { ptr, i32 } %.pn
}